target datalayout = "e-m:e-p270:32:32-p271:32:32-p272:64:64-i64:64-i128:128-f80:128-n8:16:32:64-S128"
target triple = "x86_64-pc-linux-gnu"

%"class.absl::debian2::Time" = type { %"class.absl::debian2::Duration" }
%"class.absl::debian2::Duration" = type <{ i64, i32, [4 x i8] }>
%"class.open_spiel::DataLoggerJsonLines" = type { %"class.open_spiel::DataLogger", %"class.open_spiel::file::File", i8, [7 x i8], %"class.absl::debian2::Time" }
%"class.open_spiel::DataLogger" = type { ptr }
%"class.open_spiel::file::File" = type { %"class.std::unique_ptr" }
%"class.std::unique_ptr" = type { %"struct.std::__uniq_ptr_data" }
%"struct.std::__uniq_ptr_data" = type { %"class.std::__uniq_ptr_impl" }
%"class.std::__uniq_ptr_impl" = type { %"class.std::tuple" }
%"class.std::tuple" = type { %"struct.std::_Tuple_impl" }
%"struct.std::_Tuple_impl" = type { %"struct.std::_Head_base.1" }
%"struct.std::_Head_base.1" = type { ptr }

; Function Attrs: mustprogress nounwind uwtable
define linkonce_odr void @_ZN10open_spiel10DataLoggerD2Ev(ptr noundef nonnull align 8 dereferenceable(8) %0) unnamed_addr #5 comdat align 2 {
  %2 = alloca ptr, align 8
  store ptr %0, ptr %2, align 8
  ret void
}

; Function Attrs: mustprogress nounwind uwtable
define void @_ZN10open_spiel19DataLoggerJsonLinesD2Ev(ptr noundef nonnull align 8 dereferenceable(40) %0) unnamed_addr #5 align 2 personality ptr @__gxx_personality_v0 {
  %2 = alloca ptr, align 8
  store ptr %0, ptr %2, align 8
  %3 = load ptr, ptr %2, align 8
  store ptr getelementptr inbounds inrange(-16, 32) ({ [6 x ptr] }, ptr @_ZTVN10open_spiel19DataLoggerJsonLinesE, i32 0, i32 0, i32 2), ptr %3, align 8
  %4 = load ptr, ptr %3, align 8
  %5 = getelementptr inbounds ptr, ptr %4, i64 3
  %6 = load ptr, ptr %5, align 8
  invoke void %6(ptr noundef nonnull align 8 dereferenceable(40) %3)
          to label %7 unwind label %9

7:                                                ; preds = %1
  %8 = getelementptr inbounds nuw %"class.open_spiel::DataLoggerJsonLines", ptr %3, i32 0, i32 1
  call void @_ZN10open_spiel4file4FileD1Ev(ptr noundef nonnull align 8 dereferenceable(8) %8) #3
  call void @_ZN10open_spiel10DataLoggerD2Ev(ptr noundef nonnull align 8 dereferenceable(8) %3) #3
  ret void

9:                                                ; preds = %1
  %10 = landingpad { ptr, i32 }
          catch ptr null
  %11 = extractvalue { ptr, i32 } %10, 0
  call void @__clang_call_terminate(ptr %11) #14
  unreachable
}