; Function Attrs: mustprogress nounwind uwtable
define void @_ZN10open_spiel19DataLoggerJsonLinesD2Ev(ptr noundef nonnull align 8 dereferenceable(40) %0) unnamed_addr #6 align 2 personality ptr @__gxx_personality_v0 {
  store ptr getelementptr inbounds inrange(-16, 32) (i8, ptr @_ZTVN10open_spiel19DataLoggerJsonLinesE, i64 16), ptr %0, align 8
  %2 = getelementptr inbounds nuw i8, ptr %0, i64 8
  %3 = invoke noundef zeroext i1 @_ZN10open_spiel4file4File5FlushEv(ptr noundef nonnull align 8 dereferenceable(8) %2)
          to label %_ZN10open_spiel19DataLoggerJsonLines5FlushEv.exit unwind label %4

_ZN10open_spiel19DataLoggerJsonLines5FlushEv.exit: ; preds = %1
  tail call void @_ZN10open_spiel4file4FileD1Ev(ptr noundef nonnull align 8 dereferenceable(8) %2) #17
  ret void

4:                                                ; preds = %1
  %5 = landingpad { ptr, i32 }
          catch ptr null
  %6 = extractvalue { ptr, i32 } %5, 0
  tail call void @__clang_call_terminate(ptr %6) #19
  unreachable
}